target datalayout = "e-m:e-p270:32:32-p271:32:32-p272:64:64-i64:64-i128:128-f80:128-n8:16:32:64-S128"
target triple = "x86_64-unknown-linux-gnu"

%"class.std::__shared_count" = type { ptr }
%"class.std::shared_ptr.18" = type { %"class.std::__shared_ptr.19" }
%"class.std::__shared_ptr.19" = type { ptr, %"class.std::__shared_count" }
%"class.std::vector.41" = type { %"struct.std::_Vector_base.42" }
%"struct.std::_Vector_base.42" = type { %"struct.std::_Vector_base<rocksdb::DbPath, std::allocator<rocksdb::DbPath>>::_Vector_impl" }
%"struct.std::_Vector_base<rocksdb::DbPath, std::allocator<rocksdb::DbPath>>::_Vector_impl" = type { %"struct.std::_Vector_base<rocksdb::DbPath, std::allocator<rocksdb::DbPath>>::_Vector_impl_data" }
%"struct.std::_Vector_base<rocksdb::DbPath, std::allocator<rocksdb::DbPath>>::_Vector_impl_data" = type { ptr, ptr, ptr }
%"struct.rocksdb::DBOptions" = type { i8, i8, i8, i8, i8, i8, i8, i8, ptr, %"class.std::shared_ptr.29", %"class.std::shared_ptr.32", %"class.std::shared_ptr.35", i8, i32, i32, i64, %"class.std::shared_ptr.38", i8, %"class.std::vector.41", %"class.std::__cxx11::basic_string", %"class.std::__cxx11::basic_string", i64, i32, i32, i32, i32, i64, i64, i64, i64, i64, i32, i64, i64, i64, i8, i8, i8, i8, i8, i8, i32, i32, i8, i64, i8, i64, %"class.std::shared_ptr.49", i32, i64, i64, i64, i8, i64, i64, i8, %"class.std::vector.52", i8, i64, i8, i8, i8, i8, i64, i64, i64, i8, i8, i8, i8, %"class.std::shared_ptr.18", ptr, i8, i8, i8, i8, i8, i8, i8, i8, i8, i8, i8, i64, %"class.std::shared_ptr.57", i8, i32, i64, i8, %"class.std::__cxx11::basic_string", %"class.rocksdb::SmallEnumSet", %"class.std::shared_ptr.60", i8, i8, %"class.std::__cxx11::basic_string" }
%"class.std::shared_ptr.29" = type { %"class.std::__shared_ptr.30" }
%"class.std::__shared_ptr.30" = type { ptr, %"class.std::__shared_count" }
%"class.std::shared_ptr.32" = type { %"class.std::__shared_ptr.33" }
%"class.std::__shared_ptr.33" = type { ptr, %"class.std::__shared_count" }
%"class.std::shared_ptr.35" = type { %"class.std::__shared_ptr.36" }
%"class.std::__shared_ptr.36" = type { ptr, %"class.std::__shared_count" }
%"class.std::shared_ptr.38" = type { %"class.std::__shared_ptr.39" }
%"class.std::__shared_ptr.39" = type { ptr, %"class.std::__shared_count" }
%"class.std::shared_ptr.49" = type { %"class.std::__shared_ptr.50" }
%"class.std::__shared_ptr.50" = type { ptr, %"class.std::__shared_count" }
%"class.std::vector.52" = type { %"struct.std::_Vector_base.53" }
%"struct.std::_Vector_base.53" = type { %"struct.std::_Vector_base<std::shared_ptr<rocksdb::EventListener>, std::allocator<std::shared_ptr<rocksdb::EventListener>>>::_Vector_impl" }
%"struct.std::_Vector_base<std::shared_ptr<rocksdb::EventListener>, std::allocator<std::shared_ptr<rocksdb::EventListener>>>::_Vector_impl" = type { %"struct.std::_Vector_base<std::shared_ptr<rocksdb::EventListener>, std::allocator<std::shared_ptr<rocksdb::EventListener>>>::_Vector_impl_data" }
%"struct.std::_Vector_base<std::shared_ptr<rocksdb::EventListener>, std::allocator<std::shared_ptr<rocksdb::EventListener>>>::_Vector_impl_data" = type { ptr, ptr, ptr }
%"class.std::shared_ptr.57" = type { %"class.std::__shared_ptr.58" }
%"class.std::__shared_ptr.58" = type { ptr, %"class.std::__shared_count" }
%"class.rocksdb::SmallEnumSet" = type { i64 }
%"class.std::shared_ptr.60" = type { %"class.std::__shared_ptr.61" }
%"class.std::__shared_ptr.61" = type { ptr, %"class.std::__shared_count" }
%"class.std::__cxx11::basic_string" = type { %"struct.std::__cxx11::basic_string<char>::_Alloc_hider", i64, %union.anon }
%"struct.std::__cxx11::basic_string<char>::_Alloc_hider" = type { ptr }
%union.anon = type { i64, [8 x i8] }

; Function Attrs: mustprogress nounwind uwtable
define noundef ptr @_ZN7rocksdb9DBOptions11OldDefaultsEii(ptr noundef nonnull align 8 dereferenceable(688) %this, i32 noundef %rocksdb_major_version, i32 noundef %rocksdb_minor_version) #1 align 2 {
entry:
  %this.addr = alloca ptr, align 8
  %rocksdb_major_version.addr = alloca i32, align 4
  %rocksdb_minor_version.addr = alloca i32, align 4
  store ptr %this, ptr %this.addr, align 8
  store i32 %rocksdb_major_version, ptr %rocksdb_major_version.addr, align 4
  store i32 %rocksdb_minor_version, ptr %rocksdb_minor_version.addr, align 4
  %this1 = load ptr, ptr %this.addr, align 8
  %0 = load i32, ptr %rocksdb_major_version.addr, align 4
  %cmp = icmp slt i32 %0, 4
  br i1 %cmp, label %if.then, label %lor.lhs.false

lor.lhs.false:                                    ; preds = %entry
  %1 = load i32, ptr %rocksdb_major_version.addr, align 4
  %cmp2 = icmp eq i32 %1, 4
  br i1 %cmp2, label %land.lhs.true, label %if.end

land.lhs.true:                                    ; preds = %lor.lhs.false
  %2 = load i32, ptr %rocksdb_minor_version.addr, align 4
  %cmp3 = icmp slt i32 %2, 7
  br i1 %cmp3, label %if.then, label %if.end

if.then:                                          ; preds = %land.lhs.true, %entry
  %max_file_opening_threads = getelementptr inbounds %"struct.rocksdb::DBOptions", ptr %this1, i32 0, i32 14
  store i32 1, ptr %max_file_opening_threads, align 8
  %table_cache_numshardbits = getelementptr inbounds %"struct.rocksdb::DBOptions", ptr %this1, i32 0, i32 31
  store i32 4, ptr %table_cache_numshardbits, align 8
  br label %if.end

if.end:                                           ; preds = %if.then, %land.lhs.true, %lor.lhs.false
  %3 = load i32, ptr %rocksdb_major_version.addr, align 4
  %cmp4 = icmp slt i32 %3, 5
  br i1 %cmp4, label %if.then9, label %lor.lhs.false5

lor.lhs.false5:                                   ; preds = %if.end
  %4 = load i32, ptr %rocksdb_major_version.addr, align 4
  %cmp6 = icmp eq i32 %4, 5
  br i1 %cmp6, label %land.lhs.true7, label %if.else

land.lhs.true7:                                   ; preds = %lor.lhs.false5
  %5 = load i32, ptr %rocksdb_minor_version.addr, align 4
  %cmp8 = icmp slt i32 %5, 2
  br i1 %cmp8, label %if.then9, label %if.else

if.then9:                                         ; preds = %land.lhs.true7, %if.end
  %delayed_write_rate = getelementptr inbounds %"struct.rocksdb::DBOptions", ptr %this1, i32 0, i32 58
  store i64 2097152, ptr %delayed_write_rate, align 8
  br label %if.end18

if.else:                                          ; preds = %land.lhs.true7, %lor.lhs.false5
  %6 = load i32, ptr %rocksdb_major_version.addr, align 4
  %cmp10 = icmp slt i32 %6, 5
  br i1 %cmp10, label %if.then15, label %lor.lhs.false11

lor.lhs.false11:                                  ; preds = %if.else
  %7 = load i32, ptr %rocksdb_major_version.addr, align 4
  %cmp12 = icmp eq i32 %7, 5
  br i1 %cmp12, label %land.lhs.true13, label %if.end17

land.lhs.true13:                                  ; preds = %lor.lhs.false11
  %8 = load i32, ptr %rocksdb_minor_version.addr, align 4
  %cmp14 = icmp slt i32 %8, 6
  br i1 %cmp14, label %if.then15, label %if.end17

if.then15:                                        ; preds = %land.lhs.true13, %if.else
  %delayed_write_rate16 = getelementptr inbounds %"struct.rocksdb::DBOptions", ptr %this1, i32 0, i32 58
  store i64 16777216, ptr %delayed_write_rate16, align 8
  br label %if.end17

if.end17:                                         ; preds = %if.then15, %land.lhs.true13, %lor.lhs.false11
  br label %if.end18

if.end18:                                         ; preds = %if.end17, %if.then9
  %max_open_files = getelementptr inbounds %"struct.rocksdb::DBOptions", ptr %this1, i32 0, i32 13
  store i32 5000, ptr %max_open_files, align 4
  %wal_recovery_mode = getelementptr inbounds %"struct.rocksdb::DBOptions", ptr %this1, i32 0, i32 68
  store i8 0, ptr %wal_recovery_mode, align 2
  ret ptr %this1
}