; Function Attrs: mustprogress nofree norecurse nosync nounwind willreturn memory(argmem: write) uwtable
define noundef nonnull ptr @_ZN7rocksdb9DBOptions11OldDefaultsEii(ptr noundef nonnull returned writeonly align 8 dereferenceable(688) %this, i32 noundef %rocksdb_major_version, i32 noundef %rocksdb_minor_version) local_unnamed_addr #8 align 2 {
entry:
  %cmp = icmp slt i32 %rocksdb_major_version, 4
  br i1 %cmp, label %if.end.thread, label %lor.lhs.false

lor.lhs.false:                                    ; preds = %entry
  %cmp2 = icmp eq i32 %rocksdb_major_version, 4
  %cmp3 = icmp slt i32 %rocksdb_minor_version, 7
  %or.cond = and i1 %cmp2, %cmp3
  br i1 %or.cond, label %if.end.thread, label %if.end

if.end.thread:                                    ; preds = %entry, %lor.lhs.false
  %max_file_opening_threads = getelementptr inbounds i8, ptr %this, i64 72
  store i32 1, ptr %max_file_opening_threads, align 8
  %table_cache_numshardbits = getelementptr inbounds i8, ptr %this, i64 264
  store i32 4, ptr %table_cache_numshardbits, align 8
  br label %if.end18.sink.split

if.end:                                           ; preds = %lor.lhs.false
  br i1 %cmp2, label %if.end18.sink.split, label %lor.lhs.false5

lor.lhs.false5:                                   ; preds = %if.end
  %cmp6 = icmp eq i32 %rocksdb_major_version, 5
  %cmp8 = icmp slt i32 %rocksdb_minor_version, 2
  %or.cond1 = and i1 %cmp6, %cmp8
  br i1 %or.cond1, label %if.end18.sink.split, label %lor.lhs.false11

lor.lhs.false11:                                  ; preds = %lor.lhs.false5
  %cmp14 = icmp slt i32 %rocksdb_minor_version, 6
  %or.cond2 = and i1 %cmp6, %cmp14
  br i1 %or.cond2, label %if.end18.sink.split, label %if.end18

if.end18.sink.split:                              ; preds = %lor.lhs.false11, %if.end, %lor.lhs.false5, %if.end.thread
  %.sink = phi i64 [ 2097152, %if.end.thread ], [ 2097152, %lor.lhs.false5 ], [ 2097152, %if.end ], [ 16777216, %lor.lhs.false11 ]
  %delayed_write_rate16 = getelementptr inbounds i8, ptr %this, i64 456
  store i64 %.sink, ptr %delayed_write_rate16, align 8
  br label %if.end18

if.end18:                                         ; preds = %if.end18.sink.split, %lor.lhs.false11
  %max_open_files = getelementptr inbounds i8, ptr %this, i64 68
  store i32 5000, ptr %max_open_files, align 4
  %wal_recovery_mode = getelementptr inbounds i8, ptr %this, i64 498
  store i8 0, ptr %wal_recovery_mode, align 2
  ret ptr %this
}